target datalayout = "e-m:e-p270:32:32-p271:32:32-p272:64:64-i64:64-i128:128-f80:128-n8:16:32:64-S128"
target triple = "x86_64-pc-linux-gnu"

%struct.AVCodecContext = type { ptr, i32, i32, ptr, i32, i32, ptr, ptr, ptr, i64, i32, i32, ptr, i32, %struct.AVRational, %struct.AVRational, %struct.AVRational, i32, i32, i32, i32, i32, %struct.AVRational, i32, i32, i32, i32, i32, i32, i32, i32, i32, i32, i32, ptr, ptr, i32, float, float, float, float, float, float, float, float, float, i32, i32, i32, i32, i32, i32, i32, i32, i32, i32, i32, i32, ptr, ptr, ptr, i32, i32, i32, i32, i32, i32, i32, i32, i32, i32, %struct.AVChannelLayout, i32, i32, i32, i32, i32, i32, i32, i32, ptr, i32, i32, i32, float, float, i32, i32, i32, i32, i32, ptr, i64, i64, float, float, i32, i32, ptr, ptr, i32, i32, i32, i32, i32, ptr, ptr, ptr, ptr, i32, i32, [8 x i64], i32, i32, i32, i32, i32, i32, i32, ptr, ptr, i32, i32, i32, i32, i32, i32, i32, i32, i32, i32, ptr, ptr, i32, i32, ptr, ptr, ptr, ptr, i32, i32, i64, i32, i32, i64, ptr, i64, ptr, i32, ptr, i32 }
%struct.AVRational = type { i32, i32 }
%struct.AVChannelLayout = type { i32, i32, %union.anon.0, ptr }
%union.anon.0 = type { i64 }
%struct.Msvideo1EncContext = type { ptr, ptr, %struct.AVLFG, ptr, [48 x i32], [48 x i32], [24 x i32], [24 x i32], [48 x i32], [48 x i32], [3 x i32], i32, i32 }
%struct.AVLFG = type { [64 x i32], i32 }

@.str.2 = private unnamed_addr constant [41 x i8] c"width and height must be multiples of 4\0A\00", align 1

; Function Attrs: cold nounwind optsize uwtable
define internal i32 @encode_init(ptr noundef %0) #0 {
  %2 = alloca i32, align 4
  %3 = alloca ptr, align 8
  %4 = alloca ptr, align 8
  %5 = alloca i32, align 4
  store ptr %0, ptr %3, align 8, !tbaa !4
  call void @llvm.lifetime.start.p0(i64 8, ptr %4) #5
  %6 = load ptr, ptr %3, align 8, !tbaa !4
  %7 = getelementptr inbounds nuw %struct.AVCodecContext, ptr %6, i32 0, i32 6
  %8 = load ptr, ptr %7, align 8, !tbaa !9
  store ptr %8, ptr %4, align 8, !tbaa !29
  %9 = load ptr, ptr %3, align 8, !tbaa !4
  %10 = load ptr, ptr %4, align 8, !tbaa !29
  %11 = getelementptr inbounds nuw %struct.Msvideo1EncContext, ptr %10, i32 0, i32 0
  store ptr %9, ptr %11, align 8, !tbaa !31
  %12 = load ptr, ptr %3, align 8, !tbaa !4
  %13 = getelementptr inbounds nuw %struct.AVCodecContext, ptr %12, i32 0, i32 18
  %14 = load i32, ptr %13, align 8, !tbaa !35
  %15 = load ptr, ptr %3, align 8, !tbaa !4
  %16 = getelementptr inbounds nuw %struct.AVCodecContext, ptr %15, i32 0, i32 19
  %17 = load i32, ptr %16, align 4, !tbaa !36
  %18 = load ptr, ptr %3, align 8, !tbaa !4
  %19 = call i32 @av_image_check_size(i32 noundef %14, i32 noundef %17, i32 noundef 0, ptr noundef %18)
  %20 = icmp slt i32 %19, 0
  br i1 %20, label %21, label %22

21:                                               ; preds = %1
  store i32 -1, ptr %2, align 4
  store i32 1, ptr %5, align 4
  br label %46

22:                                               ; preds = %1
  %23 = load ptr, ptr %3, align 8, !tbaa !4
  %24 = getelementptr inbounds nuw %struct.AVCodecContext, ptr %23, i32 0, i32 18
  %25 = load i32, ptr %24, align 8, !tbaa !35
  %26 = and i32 %25, 3
  %27 = icmp ne i32 %26, 0
  br i1 %27, label %34, label %28

28:                                               ; preds = %22
  %29 = load ptr, ptr %3, align 8, !tbaa !4
  %30 = getelementptr inbounds nuw %struct.AVCodecContext, ptr %29, i32 0, i32 19
  %31 = load i32, ptr %30, align 4, !tbaa !36
  %32 = and i32 %31, 3
  %33 = icmp ne i32 %32, 0
  br i1 %33, label %34, label %36

34:                                               ; preds = %28, %22
  %35 = load ptr, ptr %3, align 8, !tbaa !4
  call void (ptr, i32, ptr, ...) @av_log(ptr noundef %35, i32 noundef 16, ptr noundef @.str.2)
  store i32 -1, ptr %2, align 4
  store i32 1, ptr %5, align 4
  br label %46

36:                                               ; preds = %28
  %37 = load ptr, ptr %3, align 8, !tbaa !4
  %38 = getelementptr inbounds nuw %struct.AVCodecContext, ptr %37, i32 0, i32 114
  store i32 16, ptr %38, align 8, !tbaa !37
  %39 = load ptr, ptr %3, align 8, !tbaa !4
  %40 = getelementptr inbounds nuw %struct.AVCodecContext, ptr %39, i32 0, i32 65
  %41 = load i32, ptr %40, align 8, !tbaa !38
  %42 = load ptr, ptr %4, align 8, !tbaa !29
  %43 = getelementptr inbounds nuw %struct.Msvideo1EncContext, ptr %42, i32 0, i32 12
  store i32 %41, ptr %43, align 8, !tbaa !39
  %44 = load ptr, ptr %4, align 8, !tbaa !29
  %45 = getelementptr inbounds nuw %struct.Msvideo1EncContext, ptr %44, i32 0, i32 2
  call void @av_lfg_init(ptr noundef %45, i32 noundef 1)
  store i32 0, ptr %2, align 4
  store i32 1, ptr %5, align 4
  br label %46

46:                                               ; preds = %36, %34, %21
  call void @llvm.lifetime.end.p0(i64 8, ptr %4) #5
  %47 = load i32, ptr %2, align 4
  ret i32 %47
}