; Function Attrs: cold nounwind optsize uwtable
define internal range(i32 -1, 1) i32 @encode_init(ptr noundef %0) #0 {
  %2 = getelementptr inbounds nuw i8, ptr %0, i64 32
  %3 = load ptr, ptr %2, align 8, !tbaa !4
  store ptr %0, ptr %3, align 8, !tbaa !27
  %4 = getelementptr inbounds nuw i8, ptr %0, i64 112
  %5 = load i32, ptr %4, align 8, !tbaa !32
  %6 = getelementptr inbounds nuw i8, ptr %0, i64 116
  %7 = load i32, ptr %6, align 4, !tbaa !33
  %8 = tail call i32 @av_image_check_size(i32 noundef %5, i32 noundef %7, i32 noundef 0, ptr noundef %0) #4
  %9 = icmp slt i32 %8, 0
  br i1 %9, label %23, label %10

10:                                               ; preds = %1
  %11 = load i32, ptr %4, align 8, !tbaa !32
  %12 = and i32 %11, 3
  %.not = icmp eq i32 %12, 0
  br i1 %.not, label %13, label %16

13:                                               ; preds = %10
  %14 = load i32, ptr %6, align 4, !tbaa !33
  %15 = and i32 %14, 3
  %.not13 = icmp eq i32 %15, 0
  br i1 %.not13, label %17, label %16

16:                                               ; preds = %13, %10
  tail call void (ptr, i32, ptr, ...) @av_log(ptr noundef nonnull %0, i32 noundef 16, ptr noundef nonnull @.str.2) #4
  br label %23

17:                                               ; preds = %13
  %18 = getelementptr inbounds nuw i8, ptr %0, i64 648
  store i32 16, ptr %18, align 8, !tbaa !34
  %19 = getelementptr inbounds nuw i8, ptr %0, i64 328
  %20 = load i32, ptr %19, align 8, !tbaa !35
  %21 = getelementptr inbounds nuw i8, ptr %3, i64 1264
  store i32 %20, ptr %21, align 8, !tbaa !36
  %22 = getelementptr inbounds nuw i8, ptr %3, i64 16
  tail call void @av_lfg_init(ptr noundef nonnull %22, i32 noundef 1) #4
  br label %23

23:                                               ; preds = %1, %17, %16
  %.0 = phi i32 [ -1, %16 ], [ 0, %17 ], [ -1, %1 ]
  ret i32 %.0
}